target datalayout = "e-m:e-p270:32:32-p271:32:32-p272:64:64-i64:64-i128:128-f80:128-n8:16:32:64-S128"
target triple = "x86_64-pc-linux-gnu"

; Function Attrs: nounwind uwtable
define hidden void @av1_highbd_dr_prediction_z3_c(ptr noundef %0, i64 noundef %1, i32 noundef %2, i32 noundef %3, ptr noundef %4, ptr noundef %5, i32 noundef %6, i32 noundef %7, i32 noundef %8, i32 noundef %9) #0 {
  %11 = alloca ptr, align 8
  %12 = alloca i64, align 8
  %13 = alloca i32, align 4
  %14 = alloca i32, align 4
  %15 = alloca ptr, align 8
  %16 = alloca ptr, align 8
  %17 = alloca i32, align 4
  %18 = alloca i32, align 4
  %19 = alloca i32, align 4
  %20 = alloca i32, align 4
  %21 = alloca i32, align 4
  %22 = alloca i32, align 4
  %23 = alloca i32, align 4
  %24 = alloca i32, align 4
  %25 = alloca i32, align 4
  %26 = alloca i32, align 4
  %27 = alloca i32, align 4
  %28 = alloca i32, align 4
  %29 = alloca i32, align 4
  store ptr %0, ptr %11, align 8
  store i64 %1, ptr %12, align 8
  store i32 %2, ptr %13, align 4
  store i32 %3, ptr %14, align 4
  store ptr %4, ptr %15, align 8
  store ptr %5, ptr %16, align 8
  store i32 %6, ptr %17, align 4
  store i32 %7, ptr %18, align 4
  store i32 %8, ptr %19, align 4
  store i32 %9, ptr %20, align 4
  %30 = load i32, ptr %13, align 4
  %31 = load i32, ptr %14, align 4
  %32 = add nsw i32 %30, %31
  %33 = sub nsw i32 %32, 1
  %34 = load i32, ptr %17, align 4
  %35 = shl i32 %33, %34
  store i32 %35, ptr %27, align 4
  %36 = load i32, ptr %17, align 4
  %37 = sub nsw i32 6, %36
  store i32 %37, ptr %28, align 4
  %38 = load i32, ptr %17, align 4
  %39 = shl i32 1, %38
  store i32 %39, ptr %29, align 4
  %40 = load i32, ptr %19, align 4
  store i32 %40, ptr %23, align 4
  store i32 0, ptr %22, align 4
  br label %41

41:                                               ; preds = %127, %10
  %42 = load i32, ptr %22, align 4
  %43 = load i32, ptr %13, align 4
  %44 = icmp slt i32 %42, %43
  br i1 %44, label %45, label %133

45:                                               ; preds = %41
  %46 = load i32, ptr %23, align 4
  %47 = load i32, ptr %28, align 4
  %48 = ashr i32 %46, %47
  store i32 %48, ptr %24, align 4
  %49 = load i32, ptr %23, align 4
  %50 = load i32, ptr %17, align 4
  %51 = shl i32 %49, %50
  %52 = and i32 %51, 63
  %53 = ashr i32 %52, 1
  store i32 %53, ptr %25, align 4
  store i32 0, ptr %21, align 4
  br label %54

54:                                               ; preds = %120, %45
  %55 = load i32, ptr %21, align 4
  %56 = load i32, ptr %14, align 4
  %57 = icmp slt i32 %55, %56
  br i1 %57, label %58, label %126

58:                                               ; preds = %54
  %59 = load i32, ptr %24, align 4
  %60 = load i32, ptr %27, align 4
  %61 = icmp slt i32 %59, %60
  br i1 %61, label %62, label %95

62:                                               ; preds = %58
  %63 = load ptr, ptr %16, align 8
  %64 = load i32, ptr %24, align 4
  %65 = sext i32 %64 to i64
  %66 = getelementptr inbounds i16, ptr %63, i64 %65
  %67 = load i16, ptr %66, align 2
  %68 = zext i16 %67 to i32
  %69 = load i32, ptr %25, align 4
  %70 = sub nsw i32 32, %69
  %71 = mul nsw i32 %68, %70
  %72 = load ptr, ptr %16, align 8
  %73 = load i32, ptr %24, align 4
  %74 = add nsw i32 %73, 1
  %75 = sext i32 %74 to i64
  %76 = getelementptr inbounds i16, ptr %72, i64 %75
  %77 = load i16, ptr %76, align 2
  %78 = zext i16 %77 to i32
  %79 = load i32, ptr %25, align 4
  %80 = mul nsw i32 %78, %79
  %81 = add nsw i32 %71, %80
  store i32 %81, ptr %26, align 4
  %82 = load i32, ptr %26, align 4
  %83 = add nsw i32 %82, 16
  %84 = ashr i32 %83, 5
  %85 = trunc i32 %84 to i16
  %86 = load ptr, ptr %11, align 8
  %87 = load i32, ptr %21, align 4
  %88 = sext i32 %87 to i64
  %89 = load i64, ptr %12, align 8
  %90 = mul nsw i64 %88, %89
  %91 = load i32, ptr %22, align 4
  %92 = sext i32 %91 to i64
  %93 = add nsw i64 %90, %92
  %94 = getelementptr inbounds i16, ptr %86, i64 %93
  store i16 %85, ptr %94, align 2
  br label %119

95:                                               ; preds = %58
  br label %96

96:                                               ; preds = %115, %95
  %97 = load i32, ptr %21, align 4
  %98 = load i32, ptr %14, align 4
  %99 = icmp slt i32 %97, %98
  br i1 %99, label %100, label %118

100:                                              ; preds = %96
  %101 = load ptr, ptr %16, align 8
  %102 = load i32, ptr %27, align 4
  %103 = sext i32 %102 to i64
  %104 = getelementptr inbounds i16, ptr %101, i64 %103
  %105 = load i16, ptr %104, align 2
  %106 = load ptr, ptr %11, align 8
  %107 = load i32, ptr %21, align 4
  %108 = sext i32 %107 to i64
  %109 = load i64, ptr %12, align 8
  %110 = mul nsw i64 %108, %109
  %111 = load i32, ptr %22, align 4
  %112 = sext i32 %111 to i64
  %113 = add nsw i64 %110, %112
  %114 = getelementptr inbounds i16, ptr %106, i64 %113
  store i16 %105, ptr %114, align 2
  br label %115

115:                                              ; preds = %100
  %116 = load i32, ptr %21, align 4
  %117 = add nsw i32 %116, 1
  store i32 %117, ptr %21, align 4
  br label %96, !llvm.loop !18

118:                                              ; preds = %96
  br label %126

119:                                              ; preds = %62
  br label %120

120:                                              ; preds = %119
  %121 = load i32, ptr %21, align 4
  %122 = add nsw i32 %121, 1
  store i32 %122, ptr %21, align 4
  %123 = load i32, ptr %29, align 4
  %124 = load i32, ptr %24, align 4
  %125 = add nsw i32 %124, %123
  store i32 %125, ptr %24, align 4
  br label %54, !llvm.loop !19

126:                                              ; preds = %118, %54
  br label %127

127:                                              ; preds = %126
  %128 = load i32, ptr %22, align 4
  %129 = add nsw i32 %128, 1
  store i32 %129, ptr %22, align 4
  %130 = load i32, ptr %19, align 4
  %131 = load i32, ptr %23, align 4
  %132 = add nsw i32 %131, %130
  store i32 %132, ptr %23, align 4
  br label %41, !llvm.loop !20

133:                                              ; preds = %41
  ret void
}