; Function Attrs: nofree norecurse nosync nounwind memory(argmem: readwrite) uwtable
define hidden void @av1_highbd_dr_prediction_z3_c(ptr nocapture noundef writeonly %0, i64 noundef %1, i32 noundef %2, i32 noundef %3, ptr nocapture noundef readnone %4, ptr nocapture noundef readonly %5, i32 noundef %6, i32 noundef %7, i32 noundef %8, i32 noundef %9) local_unnamed_addr #0 {
  %11 = sub nsw i32 6, %6
  %12 = shl nuw i32 1, %6
  %13 = icmp sgt i32 %2, 0
  br i1 %13, label %.lr.ph56, label %._crit_edge

.lr.ph56:                                         ; preds = %10
  %14 = add nsw i32 %2, -1
  %15 = add i32 %14, %3
  %16 = shl i32 %15, %6
  %17 = icmp sgt i32 %3, 0
  %18 = sext i32 %16 to i64
  %19 = getelementptr inbounds i16, ptr %5, i64 %18
  br i1 %17, label %.lr.ph.us.preheader, label %._crit_edge

.lr.ph.us.preheader:                              ; preds = %.lr.ph56
  %20 = sext i32 %12 to i64
  %wide.trip.count74 = zext nneg i32 %2 to i64
  %wide.trip.count = zext nneg i32 %3 to i64
  br label %.lr.ph.us

.lr.ph.us:                                        ; preds = %.lr.ph.us.preheader, %.loopexit.us
  %indvars.iv71 = phi i64 [ 0, %.lr.ph.us.preheader ], [ %indvars.iv.next72, %.loopexit.us ]
  %.04253.us = phi i32 [ %8, %.lr.ph.us.preheader ], [ %29, %.loopexit.us ]
  %21 = ashr i32 %.04253.us, %11
  %22 = shl i32 %.04253.us, %6
  %23 = lshr i32 %22, 1
  %24 = and i32 %23, 31
  %25 = sub nuw nsw i32 32, %24
  %invariant.gep.us = getelementptr i16, ptr %0, i64 %indvars.iv71
  %26 = sext i32 %21 to i64
  br label %27

27:                                               ; preds = %.lr.ph.us, %32
  %indvars.iv60 = phi i64 [ %26, %.lr.ph.us ], [ %indvars.iv.next61, %32 ]
  %indvars.iv = phi i64 [ 0, %.lr.ph.us ], [ %indvars.iv.next, %32 ]
  %28 = icmp slt i64 %indvars.iv60, %18
  br i1 %28, label %32, label %.preheader.us

.loopexit.us:                                     ; preds = %32, %30, %.preheader.us
  %indvars.iv.next72 = add nuw nsw i64 %indvars.iv71, 1
  %29 = add nsw i32 %.04253.us, %8
  %exitcond75.not = icmp eq i64 %indvars.iv.next72, %wide.trip.count74
  br i1 %exitcond75.not, label %._crit_edge, label %.lr.ph.us, !llvm.loop !18

30:                                               ; preds = %.lr.ph50.us, %30
  %indvars.iv66 = phi i64 [ %indvars.iv, %.lr.ph50.us ], [ %indvars.iv.next67, %30 ]
  %31 = mul nsw i64 %1, %indvars.iv66
  %gep52.us = getelementptr i16, ptr %invariant.gep.us, i64 %31
  store i16 %.pre, ptr %gep52.us, align 2
  %indvars.iv.next67 = add nuw nsw i64 %indvars.iv66, 1
  %exitcond70.not = icmp eq i64 %indvars.iv.next67, %wide.trip.count
  br i1 %exitcond70.not, label %.loopexit.us, label %30, !llvm.loop !19

32:                                               ; preds = %27
  %33 = getelementptr inbounds i16, ptr %5, i64 %indvars.iv60
  %34 = load i16, ptr %33, align 2
  %35 = zext i16 %34 to i32
  %36 = mul nuw nsw i32 %25, %35
  %37 = getelementptr i8, ptr %33, i64 2
  %38 = load i16, ptr %37, align 2
  %39 = zext i16 %38 to i32
  %40 = mul nuw nsw i32 %24, %39
  %41 = add nuw nsw i32 %36, 16
  %42 = add nuw nsw i32 %41, %40
  %43 = lshr i32 %42, 5
  %44 = trunc i32 %43 to i16
  %45 = mul nsw i64 %1, %indvars.iv
  %gep.us = getelementptr i16, ptr %invariant.gep.us, i64 %45
  store i16 %44, ptr %gep.us, align 2
  %indvars.iv.next = add nuw nsw i64 %indvars.iv, 1
  %indvars.iv.next61 = add nsw i64 %indvars.iv60, %20
  %exitcond.not = icmp eq i64 %indvars.iv.next, %wide.trip.count
  br i1 %exitcond.not, label %.loopexit.us, label %27, !llvm.loop !20

.preheader.us:                                    ; preds = %27
  %46 = trunc nuw nsw i64 %indvars.iv to i32
  %47 = icmp sgt i32 %3, %46
  br i1 %47, label %.lr.ph50.us, label %.loopexit.us

.lr.ph50.us:                                      ; preds = %.preheader.us
  %.pre = load i16, ptr %19, align 2
  br label %30

._crit_edge:                                      ; preds = %.loopexit.us, %.lr.ph56, %10
  ret void
}